target datalayout = "e-m:e-p270:32:32-p271:32:32-p272:64:64-i64:64-i128:128-f80:128-n8:16:32:64-S128"
target triple = "x86_64-pc-linux-gnu"

%class.LibRaw = type { ptr, %struct.libraw_data_t, ptr, %struct.libraw_internal_data_t, [2048 x %struct.decode], ptr, ptr, [10 x %struct.tiff_ifd_t], %class.libraw_memmgr, %struct.libraw_callbacks_t, { i64, i64 }, { i64, i64 }, { i64, i64 }, ptr, ptr, ptr, i64, ptr, ptr, ptr, ptr }
%struct.libraw_data_t = type { ptr, %struct.libraw_image_sizes_t, %struct.libraw_iparams_t, %struct.libraw_lensinfo_t, %struct.libraw_makernotes_t, %struct.libraw_shootinginfo_t, %struct.libraw_output_params_t, %struct.libraw_raw_unpack_params_t, i32, i32, %struct.libraw_colordata_t, %struct.libraw_imgother_t, %struct.libraw_thumbnail_t, %struct.libraw_thumbnail_list_t, %struct.libraw_rawdata_t, ptr }
%struct.libraw_image_sizes_t = type { i16, i16, i16, i16, i16, i16, i16, i16, i32, double, i32, [8 x [4 x i32]], i16, [2 x %struct.libraw_raw_inset_crop_t] }
%struct.libraw_raw_inset_crop_t = type { i16, i16, i16, i16 }
%struct.libraw_iparams_t = type { [4 x i8], [64 x i8], [64 x i8], [64 x i8], [64 x i8], [64 x i8], i32, i32, i32, i32, i32, i32, [6 x [6 x i8]], [6 x [6 x i8]], [5 x i8], i32, ptr }
%struct.libraw_lensinfo_t = type { float, float, float, float, float, [128 x i8], [128 x i8], [128 x i8], [128 x i8], i16, %struct.libraw_nikonlens_t, %struct.libraw_dnglens_t, %struct.libraw_makernotes_lens_t }
%struct.libraw_nikonlens_t = type { float, i8, i8, i8, i8 }
%struct.libraw_dnglens_t = type { float, float, float, float }
%struct.libraw_makernotes_lens_t = type { i64, [128 x i8], i16, i16, i64, i16, i16, [64 x i8], i16, [16 x i8], [16 x i8], float, float, float, float, float, float, float, float, float, float, float, float, float, float, float, i64, [128 x i8], i64, [128 x i8], i64, [128 x i8], i16, float }
%struct.libraw_makernotes_t = type { %struct.libraw_canon_makernotes_t, %struct.libraw_nikon_makernotes_t, %struct.libraw_hasselblad_makernotes_t, %struct.libraw_fuji_info_t, %struct.libraw_olympus_makernotes_t, %struct.libraw_sony_info_t, %struct.libraw_kodak_makernotes_t, %struct.libraw_panasonic_makernotes_t, %struct.libraw_pentax_makernotes_t, %struct.libraw_p1_makernotes_t, %struct.libraw_ricoh_makernotes_t, %struct.libraw_samsung_makernotes_t, %struct.libraw_metadata_common_t }
%struct.libraw_canon_makernotes_t = type { i32, i32, i32, i32, [4 x i32], i32, [4 x i32], i16, i16, i8, i16, i16, i16, i16, i16, i16, i16, i16, i16, i16, i16, i16, i16, i32, float, i16, i16, i16, i32, i16, i32, i32, i16, i32, %struct.libraw_area_t, %struct.libraw_area_t, %struct.libraw_area_t, %struct.libraw_area_t, %struct.libraw_area_t, [2 x i16] }
%struct.libraw_area_t = type { i16, i16, i16, i16 }
%struct.libraw_nikon_makernotes_t = type { double, i16, i16, [7 x i8], i8, i8, [13 x i8], [20 x i8], [4 x i8], [4 x i8], [4 x i8], i8, i8, i8, i8, i8, [2 x i8], i8, i8, i8, i8, i8, [4 x i8], [4 x i8], i8, i16, i32, i32, i32, i32, [4 x double], i8, i8, i8, i32, i32, i32, i8, [4 x i16], i16, %struct.libraw_sensor_highspeed_crop_t, i16, i16, i16, i32, [20 x i8], [20 x i8], i32, i16, double, double, double }
%struct.libraw_sensor_highspeed_crop_t = type { i16, i16, i16, i16 }
%struct.libraw_hasselblad_makernotes_t = type { i32, double, [8 x i8], [64 x i8], [64 x i8], i32, i32, i32, i32, [32 x i8], [64 x i8], i32, [2 x i32], [2 x i32], [4 x [3 x double]] }
%struct.libraw_fuji_info_t = type { float, i16, i16, i16, i16, i16, i16, i16, i16, [33 x i8], [33 x i8], float, i16, i16, [2 x i16], i16, i32, i32, i16, [3 x i16], i16, i16, i16, i16, i16, i32, i16, [13 x i8], [5 x i8], [5 x i8], i32, i16, i32, i16, [9 x i16], [32 x i32], i32, i32, i32, [2 x float], i32 }
%struct.libraw_olympus_makernotes_t = type { [6 x i8], i16, [2 x i32], [5 x i16], i16, [2 x i16], i16, i16, [64 x i32], [5 x double], i16, i8, [3 x i16], [3 x i32], i16, i16, i16, i16, double, [4 x i16], [2 x i32], i8, i32, i16, i16 }
%struct.libraw_sony_info_t = type { i16, i8, i8, i32, i8, i32, i8, i8, i16, [2 x i16], i8, i8, i16, [10 x i8], i8, i8, [4 x i16], i16, i8, i8, i8, i16, i32, i16, [2 x i16], i16, i16, i16, i16, i16, i16, i16, i32, float, i16, i32, i32, i16, [20 x i8], i32, i16, i32, i8, i8, i16, i16, i16, i16, i16, i16, i16, i16, i16, i32, i16, [16 x i8], float }
%struct.libraw_kodak_makernotes_t = type { i16, i16, i16, i16, i16, i16, [3 x [3 x float]], [3 x [3 x float]], [3 x [3 x float]], [3 x [3 x float]], [3 x [3 x float]], [3 x [3 x float]], i16, i16, i16, i16, float, float }
%struct.libraw_panasonic_makernotes_t = type { i16, i16, [8 x float], i32, float, [3 x i32], i16, i16, i32, i32 }
%struct.libraw_pentax_makernotes_t = type { [4 x i8], [2 x i16], [2 x i16], i16, i32, i32, i16, i16, i8, i8, i16 }
%struct.libraw_p1_makernotes_t = type { [64 x i8], [64 x i8], [256 x i8], [64 x i8] }
%struct.libraw_ricoh_makernotes_t = type { i16, [2 x i32], [2 x i32], i16, i32, i32, i32, i32, i16, i16, i16, i16, i16, i16, double, double }
%struct.libraw_samsung_makernotes_t = type { [4 x i32], [4 x i32], [2 x i32], [11 x i32], double, i32, [32 x i8] }
%struct.libraw_metadata_common_t = type { float, float, float, float, float, float, float, float, float, float, float, float, float, float, float, float, i16, [128 x i8], float, [4 x %struct.libraw_afinfo_item_t], i32 }
%struct.libraw_afinfo_item_t = type { i32, i16, i32, i32, ptr }
%struct.libraw_shootinginfo_t = type { i16, i16, i16, i16, i16, i16, i16, [64 x i8], [64 x i8] }
%struct.libraw_output_params_t = type { [4 x i32], [4 x i32], [4 x double], [6 x double], [4 x float], float, float, i32, i32, i32, i32, i32, i32, i32, ptr, ptr, ptr, ptr, i32, i32, i32, i32, i32, i32, [4 x i32], i32, i32, float, float, i32, i32, i32, i32, i32, i32, i32, i32, float, float, i32, i32 }
%struct.libraw_raw_unpack_params_t = type { i32, i32, i32, i32, i32, i32, i32, float, [5 x i8], ptr }
%struct.libraw_colordata_t = type { [65536 x i16], [4104 x i32], i32, i32, i32, [4 x i64], float, float, [8 x [8 x i16]], [4 x float], [4 x float], [3 x [4 x float]], [3 x [4 x float]], [3 x [4 x float]], [4 x [3 x float]], %struct.ph1_t, float, float, [64 x i8], [64 x i8], [64 x i8], [64 x i8], [17 x i8], [64 x i8], ptr, i32, [8 x i32], [2 x %struct.libraw_dng_color_t], %struct.libraw_dng_levels_t, [256 x [4 x i32]], [64 x [5 x float]], i32, [2 x %struct.libraw_P1_color_t], i32, i32 }
%struct.ph1_t = type { i32, i32, i32, i32, i32, i32, i32, i32, float }
%struct.libraw_dng_color_t = type { i32, i16, [4 x [4 x float]], [4 x [3 x float]], [3 x [4 x float]] }
%struct.libraw_dng_levels_t = type { i32, [4104 x i32], i32, [4104 x float], float, [4 x i32], [4 x i16], [4 x float], i32, [4 x float], [4 x float], float, float }
%struct.libraw_P1_color_t = type { [9 x float] }
%struct.libraw_imgother_t = type { float, float, float, float, i64, i32, [32 x i32], %struct.libraw_gps_info_t, [512 x i8], [64 x i8], [4 x float] }
%struct.libraw_gps_info_t = type { [3 x float], [3 x float], [3 x float], float, i8, i8, i8, i8, i8 }
%struct.libraw_thumbnail_t = type { i32, i16, i16, i32, i32, ptr }
%struct.libraw_thumbnail_list_t = type { i32, [8 x %struct.libraw_thumbnail_item_t] }
%struct.libraw_thumbnail_item_t = type { i32, i16, i16, i16, i32, i32, i64 }
%struct.libraw_rawdata_t = type { ptr, ptr, ptr, ptr, ptr, ptr, ptr, ptr, ptr, %struct.libraw_iparams_t, %struct.libraw_image_sizes_t, %struct.libraw_internal_output_params_t, %struct.libraw_colordata_t }
%struct.libraw_internal_output_params_t = type { i32, i32, i32, i16, i16 }
%struct.libraw_internal_data_t = type { %struct.internal_data_t, %struct.libraw_internal_output_params_t, %struct.output_data_t, %struct.identify_data_t, %struct.unpacker_data_t }
%struct.internal_data_t = type { ptr, ptr, i32, ptr, i64, i64, [4 x i32] }
%struct.output_data_t = type { ptr, ptr }
%struct.identify_data_t = type { i32, i64, i64, i32, i32, i32 }
%struct.unpacker_data_t = type { i16, [4 x i16], [3 x i16], i32, i64, i64, i64, i64, i64, i64, i32, i32, i32, i32, i32, i32, i32, i32, i32, i32, i32, i32, i32, i32, i32, i32, i32, i64, i32, i32, i32, i32, i32, i32, i32, i32, i32, %struct.pana8_tags_t, [16 x %struct.crx_data_header_t], i32, i32, i16, i16, i32, i32, i32, i32, i32, i32, i32, [20 x i32], i16 }
%struct.pana8_tags_t = type { [6 x i32], [6 x i16], i16, [4 x i16], [17 x i16], [17 x i16], [17 x i16], i16, i16, [5 x i64], [5 x i16], [5 x i32], [5 x i16], [5 x i16] }
%struct.crx_data_header_t = type { i32, i32, i32, i32, i32, i32, i32, i32, i32, i32, i32, i32, i32, i32, i32, i64, i32, ptr, i32, i32, i32, ptr, i32, ptr }
%struct.decode = type { [2 x ptr], i32 }
%struct.tiff_ifd_t = type { i32, i32, i32, i32, i32, i32, i32, i32, i32, i32, i32, i32, i32, i32, i32, ptr, i32, ptr, i32, i32, i32, i32, i32, i32, i32, float, i64, i64, i32, [2 x %struct.libraw_dng_color_t], %struct.libraw_dng_levels_t, i32 }
%class.libraw_memmgr = type <{ ptr, i32, [4 x i8] }>
%struct.libraw_callbacks_t = type { ptr, ptr, ptr, ptr, ptr, ptr, ptr, ptr, ptr, ptr, ptr, ptr, ptr, ptr, ptr, ptr, ptr }

; Function Attrs: mustprogress uwtable
define void @_ZN6LibRaw18canon_600_load_rawEv(ptr noundef nonnull align 8 dereferenceable(767680) %0) #3 align 2 {
  %2 = alloca ptr, align 8
  %3 = alloca [1120 x i8], align 16
  %4 = alloca ptr, align 8
  %5 = alloca ptr, align 8
  %6 = alloca i32, align 4
  %7 = alloca i32, align 4
  store ptr %0, ptr %2, align 8, !tbaa !6
  %8 = load ptr, ptr %2, align 8
  call void @llvm.lifetime.start.p0(i64 1120, ptr %3) #6
  call void @llvm.lifetime.start.p0(i64 8, ptr %4) #6
  call void @llvm.lifetime.start.p0(i64 8, ptr %5) #6
  call void @llvm.lifetime.start.p0(i64 4, ptr %6) #6
  call void @llvm.lifetime.start.p0(i64 4, ptr %7) #6
  store i32 0, ptr %7, align 4, !tbaa !11
  store i32 0, ptr %6, align 4, !tbaa !11
  br label %9

9:                                                ; preds = %182, %1
  %10 = load i32, ptr %6, align 4, !tbaa !11
  %11 = getelementptr inbounds nuw %class.LibRaw, ptr %8, i32 0, i32 1
  %12 = getelementptr inbounds nuw %struct.libraw_data_t, ptr %11, i32 0, i32 1
  %13 = getelementptr inbounds nuw %struct.libraw_image_sizes_t, ptr %12, i32 0, i32 2
  %14 = load i16, ptr %13, align 4, !tbaa !82
  %15 = zext i16 %14 to i32
  %16 = icmp slt i32 %10, %15
  br i1 %16, label %17, label %185

17:                                               ; preds = %9
  call void @_ZN6LibRaw11checkCancelEv(ptr noundef nonnull align 8 dereferenceable(767680) %8)
  %18 = getelementptr inbounds nuw %class.LibRaw, ptr %8, i32 0, i32 3
  %19 = getelementptr inbounds nuw %struct.libraw_internal_data_t, ptr %18, i32 0, i32 0
  %20 = getelementptr inbounds nuw %struct.internal_data_t, ptr %19, i32 0, i32 0
  %21 = load ptr, ptr %20, align 8, !tbaa !103
  %22 = getelementptr inbounds [1120 x i8], ptr %3, i64 0, i64 0
  %23 = load ptr, ptr %21, align 8, !tbaa !104
  %24 = getelementptr inbounds ptr, ptr %23, i64 3
  %25 = load ptr, ptr %24, align 8
  %26 = call noundef i32 %25(ptr noundef nonnull align 8 dereferenceable(8) %21, ptr noundef %22, i64 noundef 1, i64 noundef 1120)
  %27 = icmp slt i32 %26, 1120
  br i1 %27, label %28, label %29

28:                                               ; preds = %17
  call void @_ZN6LibRaw6derrorEv(ptr noundef nonnull align 8 dereferenceable(767680) %8)
  br label %29

29:                                               ; preds = %28, %17
  %30 = getelementptr inbounds nuw %class.LibRaw, ptr %8, i32 0, i32 1
  %31 = getelementptr inbounds nuw %struct.libraw_data_t, ptr %30, i32 0, i32 14
  %32 = getelementptr inbounds nuw %struct.libraw_rawdata_t, ptr %31, i32 0, i32 1
  %33 = load ptr, ptr %32, align 8, !tbaa !106
  %34 = load i32, ptr %7, align 4, !tbaa !11
  %35 = getelementptr inbounds nuw %class.LibRaw, ptr %8, i32 0, i32 1
  %36 = getelementptr inbounds nuw %struct.libraw_data_t, ptr %35, i32 0, i32 1
  %37 = getelementptr inbounds nuw %struct.libraw_image_sizes_t, ptr %36, i32 0, i32 1
  %38 = load i16, ptr %37, align 2, !tbaa !107
  %39 = zext i16 %38 to i32
  %40 = mul nsw i32 %34, %39
  %41 = sext i32 %40 to i64
  %42 = getelementptr inbounds i16, ptr %33, i64 %41
  store ptr %42, ptr %5, align 8, !tbaa !108
  %43 = getelementptr inbounds [1120 x i8], ptr %3, i64 0, i64 0
  store ptr %43, ptr %4, align 8, !tbaa !109
  br label %44

44:                                               ; preds = %166, %29
  %45 = load ptr, ptr %4, align 8, !tbaa !109
  %46 = getelementptr inbounds [1120 x i8], ptr %3, i64 0, i64 0
  %47 = getelementptr inbounds i8, ptr %46, i64 1120
  %48 = icmp ult ptr %45, %47
  br i1 %48, label %49, label %171

49:                                               ; preds = %44
  %50 = load ptr, ptr %4, align 8, !tbaa !109
  %51 = getelementptr inbounds i8, ptr %50, i64 0
  %52 = load i8, ptr %51, align 1, !tbaa !110
  %53 = zext i8 %52 to i32
  %54 = shl i32 %53, 2
  %55 = load ptr, ptr %4, align 8, !tbaa !109
  %56 = getelementptr inbounds i8, ptr %55, i64 1
  %57 = load i8, ptr %56, align 1, !tbaa !110
  %58 = zext i8 %57 to i32
  %59 = ashr i32 %58, 6
  %60 = add nsw i32 %54, %59
  %61 = trunc i32 %60 to i16
  %62 = load ptr, ptr %5, align 8, !tbaa !108
  %63 = getelementptr inbounds i16, ptr %62, i64 0
  store i16 %61, ptr %63, align 2, !tbaa !15
  %64 = load ptr, ptr %4, align 8, !tbaa !109
  %65 = getelementptr inbounds i8, ptr %64, i64 2
  %66 = load i8, ptr %65, align 1, !tbaa !110
  %67 = zext i8 %66 to i32
  %68 = shl i32 %67, 2
  %69 = load ptr, ptr %4, align 8, !tbaa !109
  %70 = getelementptr inbounds i8, ptr %69, i64 1
  %71 = load i8, ptr %70, align 1, !tbaa !110
  %72 = zext i8 %71 to i32
  %73 = ashr i32 %72, 4
  %74 = and i32 %73, 3
  %75 = add nsw i32 %68, %74
  %76 = trunc i32 %75 to i16
  %77 = load ptr, ptr %5, align 8, !tbaa !108
  %78 = getelementptr inbounds i16, ptr %77, i64 1
  store i16 %76, ptr %78, align 2, !tbaa !15
  %79 = load ptr, ptr %4, align 8, !tbaa !109
  %80 = getelementptr inbounds i8, ptr %79, i64 3
  %81 = load i8, ptr %80, align 1, !tbaa !110
  %82 = zext i8 %81 to i32
  %83 = shl i32 %82, 2
  %84 = load ptr, ptr %4, align 8, !tbaa !109
  %85 = getelementptr inbounds i8, ptr %84, i64 1
  %86 = load i8, ptr %85, align 1, !tbaa !110
  %87 = zext i8 %86 to i32
  %88 = ashr i32 %87, 2
  %89 = and i32 %88, 3
  %90 = add nsw i32 %83, %89
  %91 = trunc i32 %90 to i16
  %92 = load ptr, ptr %5, align 8, !tbaa !108
  %93 = getelementptr inbounds i16, ptr %92, i64 2
  store i16 %91, ptr %93, align 2, !tbaa !15
  %94 = load ptr, ptr %4, align 8, !tbaa !109
  %95 = getelementptr inbounds i8, ptr %94, i64 4
  %96 = load i8, ptr %95, align 1, !tbaa !110
  %97 = zext i8 %96 to i32
  %98 = shl i32 %97, 2
  %99 = load ptr, ptr %4, align 8, !tbaa !109
  %100 = getelementptr inbounds i8, ptr %99, i64 1
  %101 = load i8, ptr %100, align 1, !tbaa !110
  %102 = zext i8 %101 to i32
  %103 = and i32 %102, 3
  %104 = add nsw i32 %98, %103
  %105 = trunc i32 %104 to i16
  %106 = load ptr, ptr %5, align 8, !tbaa !108
  %107 = getelementptr inbounds i16, ptr %106, i64 3
  store i16 %105, ptr %107, align 2, !tbaa !15
  %108 = load ptr, ptr %4, align 8, !tbaa !109
  %109 = getelementptr inbounds i8, ptr %108, i64 5
  %110 = load i8, ptr %109, align 1, !tbaa !110
  %111 = zext i8 %110 to i32
  %112 = shl i32 %111, 2
  %113 = load ptr, ptr %4, align 8, !tbaa !109
  %114 = getelementptr inbounds i8, ptr %113, i64 9
  %115 = load i8, ptr %114, align 1, !tbaa !110
  %116 = zext i8 %115 to i32
  %117 = and i32 %116, 3
  %118 = add nsw i32 %112, %117
  %119 = trunc i32 %118 to i16
  %120 = load ptr, ptr %5, align 8, !tbaa !108
  %121 = getelementptr inbounds i16, ptr %120, i64 4
  store i16 %119, ptr %121, align 2, !tbaa !15
  %122 = load ptr, ptr %4, align 8, !tbaa !109
  %123 = getelementptr inbounds i8, ptr %122, i64 6
  %124 = load i8, ptr %123, align 1, !tbaa !110
  %125 = zext i8 %124 to i32
  %126 = shl i32 %125, 2
  %127 = load ptr, ptr %4, align 8, !tbaa !109
  %128 = getelementptr inbounds i8, ptr %127, i64 9
  %129 = load i8, ptr %128, align 1, !tbaa !110
  %130 = zext i8 %129 to i32
  %131 = ashr i32 %130, 2
  %132 = and i32 %131, 3
  %133 = add nsw i32 %126, %132
  %134 = trunc i32 %133 to i16
  %135 = load ptr, ptr %5, align 8, !tbaa !108
  %136 = getelementptr inbounds i16, ptr %135, i64 5
  store i16 %134, ptr %136, align 2, !tbaa !15
  %137 = load ptr, ptr %4, align 8, !tbaa !109
  %138 = getelementptr inbounds i8, ptr %137, i64 7
  %139 = load i8, ptr %138, align 1, !tbaa !110
  %140 = zext i8 %139 to i32
  %141 = shl i32 %140, 2
  %142 = load ptr, ptr %4, align 8, !tbaa !109
  %143 = getelementptr inbounds i8, ptr %142, i64 9
  %144 = load i8, ptr %143, align 1, !tbaa !110
  %145 = zext i8 %144 to i32
  %146 = ashr i32 %145, 4
  %147 = and i32 %146, 3
  %148 = add nsw i32 %141, %147
  %149 = trunc i32 %148 to i16
  %150 = load ptr, ptr %5, align 8, !tbaa !108
  %151 = getelementptr inbounds i16, ptr %150, i64 6
  store i16 %149, ptr %151, align 2, !tbaa !15
  %152 = load ptr, ptr %4, align 8, !tbaa !109
  %153 = getelementptr inbounds i8, ptr %152, i64 8
  %154 = load i8, ptr %153, align 1, !tbaa !110
  %155 = zext i8 %154 to i32
  %156 = shl i32 %155, 2
  %157 = load ptr, ptr %4, align 8, !tbaa !109
  %158 = getelementptr inbounds i8, ptr %157, i64 9
  %159 = load i8, ptr %158, align 1, !tbaa !110
  %160 = zext i8 %159 to i32
  %161 = ashr i32 %160, 6
  %162 = add nsw i32 %156, %161
  %163 = trunc i32 %162 to i16
  %164 = load ptr, ptr %5, align 8, !tbaa !108
  %165 = getelementptr inbounds i16, ptr %164, i64 7
  store i16 %163, ptr %165, align 2, !tbaa !15
  br label %166

166:                                              ; preds = %49
  %167 = load ptr, ptr %4, align 8, !tbaa !109
  %168 = getelementptr inbounds i8, ptr %167, i64 10
  store ptr %168, ptr %4, align 8, !tbaa !109
  %169 = load ptr, ptr %5, align 8, !tbaa !108
  %170 = getelementptr inbounds i16, ptr %169, i64 8
  store ptr %170, ptr %5, align 8, !tbaa !108
  br label %44, !llvm.loop !111

171:                                              ; preds = %44
  %172 = load i32, ptr %7, align 4, !tbaa !11
  %173 = add nsw i32 %172, 2
  store i32 %173, ptr %7, align 4, !tbaa !11
  %174 = getelementptr inbounds nuw %class.LibRaw, ptr %8, i32 0, i32 1
  %175 = getelementptr inbounds nuw %struct.libraw_data_t, ptr %174, i32 0, i32 1
  %176 = getelementptr inbounds nuw %struct.libraw_image_sizes_t, ptr %175, i32 0, i32 2
  %177 = load i16, ptr %176, align 4, !tbaa !82
  %178 = zext i16 %177 to i32
  %179 = icmp sgt i32 %173, %178
  br i1 %179, label %180, label %181

180:                                              ; preds = %171
  store i32 1, ptr %7, align 4, !tbaa !11
  br label %181

181:                                              ; preds = %180, %171
  br label %182

182:                                              ; preds = %181
  %183 = load i32, ptr %6, align 4, !tbaa !11
  %184 = add nsw i32 %183, 1
  store i32 %184, ptr %6, align 4, !tbaa !11
  br label %9, !llvm.loop !112

185:                                              ; preds = %9
  call void @llvm.lifetime.end.p0(i64 4, ptr %7) #6
  call void @llvm.lifetime.end.p0(i64 4, ptr %6) #6
  call void @llvm.lifetime.end.p0(i64 8, ptr %5) #6
  call void @llvm.lifetime.end.p0(i64 8, ptr %4) #6
  call void @llvm.lifetime.end.p0(i64 1120, ptr %3) #6
  ret void
}