; Function Attrs: mustprogress uwtable
define void @_ZN6LibRaw18canon_600_load_rawEv(ptr noundef nonnull align 8 dereferenceable(767680) %0) local_unnamed_addr #7 align 2 {
  %2 = alloca [1120 x i8], align 16
  call void @llvm.lifetime.start.p0(i64 1120, ptr nonnull %2) #10
  %3 = getelementptr inbounds nuw i8, ptr %0, i64 20
  %4 = load i16, ptr %3, align 4, !tbaa !79
  %.not = icmp eq i16 %4, 0
  br i1 %.not, label %._crit_edge, label %.lr.ph

.lr.ph:                                           ; preds = %1
  %5 = getelementptr inbounds nuw i8, ptr %0, i64 381416
  %6 = getelementptr inbounds nuw i8, ptr %0, i64 193648
  %7 = getelementptr inbounds nuw i8, ptr %0, i64 18
  br label %8

8:                                                ; preds = %.lr.ph, %102
  %.037 = phi i32 [ 0, %.lr.ph ], [ %spec.store.select, %102 ]
  %.03136 = phi i32 [ 0, %.lr.ph ], [ %107, %102 ]
  call void @_ZN6LibRaw11checkCancelEv(ptr noundef nonnull align 8 dereferenceable(767680) %0)
  %9 = load ptr, ptr %5, align 8, !tbaa !96
  %10 = load ptr, ptr %9, align 8, !tbaa !97
  %11 = getelementptr inbounds nuw i8, ptr %10, i64 24
  %12 = load ptr, ptr %11, align 8
  %13 = call noundef i32 %12(ptr noundef nonnull align 8 dereferenceable(8) %9, ptr noundef nonnull %2, i64 noundef 1, i64 noundef 1120)
  %14 = icmp slt i32 %13, 1120
  br i1 %14, label %15, label %16

15:                                               ; preds = %8
  call void @_ZN6LibRaw6derrorEv(ptr noundef nonnull align 8 dereferenceable(767680) %0)
  br label %16

16:                                               ; preds = %15, %8
  %17 = load ptr, ptr %6, align 8, !tbaa !99
  %18 = load i16, ptr %7, align 2, !tbaa !100
  %19 = zext i16 %18 to i32
  %20 = mul nsw i32 %.037, %19
  %21 = sext i32 %20 to i64
  %22 = getelementptr inbounds i16, ptr %17, i64 %21
  br label %23

23:                                               ; preds = %16, %23
  %.03235 = phi ptr [ %22, %16 ], [ %100, %23 ]
  %.033.idx34 = phi i64 [ 0, %16 ], [ %.033.add, %23 ]
  %.033.ptr = getelementptr inbounds nuw i8, ptr %2, i64 %.033.idx34
  %24 = load i8, ptr %.033.ptr, align 2, !tbaa !101
  %25 = zext i8 %24 to i16
  %26 = shl nuw nsw i16 %25, 2
  %27 = getelementptr inbounds nuw i8, ptr %.033.ptr, i64 1
  %28 = load i8, ptr %27, align 1, !tbaa !101
  %29 = lshr i8 %28, 6
  %30 = zext nneg i8 %29 to i16
  %31 = or disjoint i16 %26, %30
  store i16 %31, ptr %.03235, align 2, !tbaa !6
  %32 = getelementptr inbounds nuw i8, ptr %.033.ptr, i64 2
  %33 = load i8, ptr %32, align 2, !tbaa !101
  %34 = zext i8 %33 to i16
  %35 = shl nuw nsw i16 %34, 2
  %36 = load i8, ptr %27, align 1, !tbaa !101
  %37 = lshr i8 %36, 4
  %38 = and i8 %37, 3
  %39 = zext nneg i8 %38 to i16
  %40 = or disjoint i16 %35, %39
  %41 = getelementptr inbounds nuw i8, ptr %.03235, i64 2
  store i16 %40, ptr %41, align 2, !tbaa !6
  %42 = getelementptr inbounds nuw i8, ptr %.033.ptr, i64 3
  %43 = load i8, ptr %42, align 1, !tbaa !101
  %44 = zext i8 %43 to i16
  %45 = shl nuw nsw i16 %44, 2
  %46 = load i8, ptr %27, align 1, !tbaa !101
  %47 = lshr i8 %46, 2
  %48 = and i8 %47, 3
  %49 = zext nneg i8 %48 to i16
  %50 = or disjoint i16 %45, %49
  %51 = getelementptr inbounds nuw i8, ptr %.03235, i64 4
  store i16 %50, ptr %51, align 2, !tbaa !6
  %52 = getelementptr inbounds nuw i8, ptr %.033.ptr, i64 4
  %53 = load i8, ptr %52, align 2, !tbaa !101
  %54 = zext i8 %53 to i16
  %55 = shl nuw nsw i16 %54, 2
  %56 = load i8, ptr %27, align 1, !tbaa !101
  %57 = and i8 %56, 3
  %58 = zext nneg i8 %57 to i16
  %59 = or disjoint i16 %55, %58
  %60 = getelementptr inbounds nuw i8, ptr %.03235, i64 6
  store i16 %59, ptr %60, align 2, !tbaa !6
  %61 = getelementptr inbounds nuw i8, ptr %.033.ptr, i64 5
  %62 = load i8, ptr %61, align 1, !tbaa !101
  %63 = zext i8 %62 to i16
  %64 = shl nuw nsw i16 %63, 2
  %65 = getelementptr inbounds nuw i8, ptr %.033.ptr, i64 9
  %66 = load i8, ptr %65, align 1, !tbaa !101
  %67 = and i8 %66, 3
  %68 = zext nneg i8 %67 to i16
  %69 = or disjoint i16 %64, %68
  %70 = getelementptr inbounds nuw i8, ptr %.03235, i64 8
  store i16 %69, ptr %70, align 2, !tbaa !6
  %71 = getelementptr inbounds nuw i8, ptr %.033.ptr, i64 6
  %72 = load i8, ptr %71, align 2, !tbaa !101
  %73 = zext i8 %72 to i16
  %74 = shl nuw nsw i16 %73, 2
  %75 = load i8, ptr %65, align 1, !tbaa !101
  %76 = lshr i8 %75, 2
  %77 = and i8 %76, 3
  %78 = zext nneg i8 %77 to i16
  %79 = or disjoint i16 %74, %78
  %80 = getelementptr inbounds nuw i8, ptr %.03235, i64 10
  store i16 %79, ptr %80, align 2, !tbaa !6
  %81 = getelementptr inbounds nuw i8, ptr %.033.ptr, i64 7
  %82 = load i8, ptr %81, align 1, !tbaa !101
  %83 = zext i8 %82 to i16
  %84 = shl nuw nsw i16 %83, 2
  %85 = load i8, ptr %65, align 1, !tbaa !101
  %86 = lshr i8 %85, 4
  %87 = and i8 %86, 3
  %88 = zext nneg i8 %87 to i16
  %89 = or disjoint i16 %84, %88
  %90 = getelementptr inbounds nuw i8, ptr %.03235, i64 12
  store i16 %89, ptr %90, align 2, !tbaa !6
  %91 = getelementptr inbounds nuw i8, ptr %.033.ptr, i64 8
  %92 = load i8, ptr %91, align 2, !tbaa !101
  %93 = zext i8 %92 to i16
  %94 = shl nuw nsw i16 %93, 2
  %95 = load i8, ptr %65, align 1, !tbaa !101
  %96 = lshr i8 %95, 6
  %97 = zext nneg i8 %96 to i16
  %98 = or disjoint i16 %94, %97
  %99 = getelementptr inbounds nuw i8, ptr %.03235, i64 14
  store i16 %98, ptr %99, align 2, !tbaa !6
  %.033.add = add nuw nsw i64 %.033.idx34, 10
  %100 = getelementptr inbounds nuw i8, ptr %.03235, i64 16
  %101 = icmp samesign ult i64 %.033.idx34, 1110
  br i1 %101, label %23, label %102, !llvm.loop !102

102:                                              ; preds = %23
  %103 = add nsw i32 %.037, 2
  %104 = load i16, ptr %3, align 4, !tbaa !79
  %105 = zext i16 %104 to i32
  %106 = icmp sgt i32 %103, %105
  %spec.store.select = select i1 %106, i32 1, i32 %103
  %107 = add nuw nsw i32 %.03136, 1
  %108 = icmp samesign ult i32 %107, %105
  br i1 %108, label %8, label %._crit_edge, !llvm.loop !103

._crit_edge:                                      ; preds = %102, %1
  call void @llvm.lifetime.end.p0(i64 1120, ptr nonnull %2) #10
  ret void
}